; Function Attrs: mustprogress nofree norecurse nosync nounwind memory(read, argmem: readwrite, inaccessiblemem: none) uwtable
define hidden void @_ZN10bit_matrix12col_iterator4nextEv(ptr noundef nonnull align 8 captures(none) dereferenceable(20) %0) local_unnamed_addr #3 align 2 {
  %2 = getelementptr inbounds nuw i8, ptr %0, i64 16
  %3 = load ptr, ptr %0, align 8, !tbaa !18
  %4 = getelementptr inbounds nuw i8, ptr %3, i64 40
  %5 = load i32, ptr %4, align 8, !tbaa !19
  %.promoted7 = load i32, ptr %2, align 8, !tbaa !11
  %storemerge15 = add i32 %.promoted7, 1
  %6 = icmp ult i32 %storemerge15, %5
  br i1 %6, label %.lr.ph17, label %.critedge

.lr.ph17:                                         ; preds = %1
  %7 = getelementptr inbounds nuw i8, ptr %0, i64 8
  %8 = load ptr, ptr %7, align 8, !tbaa !15
  br label %9

9:                                                ; preds = %.lr.ph17, %.critedge2
  %storemerge16 = phi i32 [ %storemerge15, %.lr.ph17 ], [ %storemerge, %.critedge2 ]
  %10 = lshr i32 %storemerge16, 6
  %11 = zext nneg i32 %10 to i64
  %12 = getelementptr inbounds nuw i64, ptr %8, i64 %11
  %13 = load i64, ptr %12, align 8, !tbaa !16
  %14 = and i32 %storemerge16, 63
  %15 = zext nneg i32 %14 to i64
  %16 = shl nuw i64 1, %15
  %17 = and i64 %13, %16
  %.not4 = icmp eq i64 %17, 0
  br i1 %.not4, label %.preheader, label %.critedge

.preheader:                                       ; preds = %9
  %18 = icmp eq i32 %14, 0
  br i1 %18, label %.lr.ph, label %.critedge2

.lr.ph:                                           ; preds = %.preheader, %22
  %19 = phi i32 [ %20, %22 ], [ %storemerge16, %.preheader ]
  %20 = add i32 %19, 64
  %21 = icmp ult i32 %20, %5
  br i1 %21, label %22, label %.critedge2

22:                                               ; preds = %.lr.ph
  %23 = lshr exact i32 %19, 6
  %24 = zext nneg i32 %23 to i64
  %25 = getelementptr inbounds nuw i64, ptr %8, i64 %24
  %26 = load i64, ptr %25, align 8, !tbaa !16
  %.not = icmp eq i64 %26, 0
  br i1 %.not, label %.lr.ph, label %.critedge2

.critedge2:                                       ; preds = %22, %.lr.ph, %.preheader
  %.promoted8 = phi i32 [ %storemerge16, %.preheader ], [ %19, %.lr.ph ], [ %19, %22 ]
  %storemerge = add i32 %.promoted8, 1
  %27 = icmp ult i32 %storemerge, %5
  br i1 %27, label %9, label %.critedge, !llvm.loop !28

.critedge:                                        ; preds = %9, %.critedge2, %1
  %storemerge.lcssa = phi i32 [ %storemerge15, %1 ], [ %storemerge, %.critedge2 ], [ %storemerge16, %9 ]
  store i32 %storemerge.lcssa, ptr %2, align 8, !tbaa !11
  ret void
}